target datalayout = "e-m:e-p270:32:32-p271:32:32-p272:64:64-i64:64-i128:128-f80:128-n8:16:32:64-S128"
target triple = "x86_64-pc-linux-gnu"

%"struct.faiss::ClusteringParameters" = type { i32, i32, i8, i8, i8, i8, i8, i32, i32, i32, i64 }
%"struct.faiss::IndexBinary" = type { ptr, i32, i32, i64, i8, i8, i32 }
%"struct.faiss::IndexBinaryIVF" = type { %"struct.faiss::IndexBinary", ptr, i8, i64, i64, i8, i8, %"struct.faiss::DirectMap", ptr, i64, i8, %"struct.faiss::ClusteringParameters", ptr }
%"struct.faiss::DirectMap" = type { i32, %"class.std::vector", %"class.std::unordered_map" }
%"class.std::vector" = type { %"struct.std::_Vector_base" }
%"struct.std::_Vector_base" = type { %"struct.std::_Vector_base<long, std::allocator<long>>::_Vector_impl" }
%"struct.std::_Vector_base<long, std::allocator<long>>::_Vector_impl" = type { %"struct.std::_Vector_base<long, std::allocator<long>>::_Vector_impl_data" }
%"struct.std::_Vector_base<long, std::allocator<long>>::_Vector_impl_data" = type { ptr, ptr, ptr }
%"class.std::unordered_map" = type { %"class.std::_Hashtable" }
%"class.std::_Hashtable" = type { ptr, i64, %"struct.std::__detail::_Hash_node_base", i64, %"struct.std::__detail::_Prime_rehash_policy", ptr }
%"struct.std::__detail::_Hash_node_base" = type { ptr }
%"struct.std::__detail::_Prime_rehash_policy" = type { float, i64 }
%"class.std::__cxx11::basic_string" = type { %"struct.std::__cxx11::basic_string<char>::_Alloc_hider", i64, %union.anon }
%"struct.std::__cxx11::basic_string<char>::_Alloc_hider" = type { ptr }
%union.anon = type { i64, [8 x i8] }
%"struct.faiss::InvertedLists" = type <{ ptr, i64, i64, i8, [7 x i8] }>

@.str = private unnamed_addr constant [19 x i8] c"Error: '%s' failed\00", align 1
@.str.2 = private unnamed_addr constant [114 x i8] c"generated/home/dtcxzyw/WorkSpace/Projects/compilers/llvm-opt-benchmark/bench/faiss/faiss/faiss/IndexBinaryIVF.cpp\00", align 1
@_ZTIN5faiss14FaissExceptionE = external constant ptr
@.str.23 = private unnamed_addr constant [49 x i8] c"il->nlist == nlist && il->code_size == code_size\00", align 1
@__PRETTY_FUNCTION__._ZN5faiss14IndexBinaryIVF16replace_invlistsEPNS_13InvertedListsEb = private unnamed_addr constant [68 x i8] c"void faiss::IndexBinaryIVF::replace_invlists(InvertedLists *, bool)\00", align 1

; Function Attrs: mustprogress uwtable
define void @_ZN5faiss14IndexBinaryIVF16replace_invlistsEPNS_13InvertedListsEb(ptr noundef nonnull align 8 dereferenceable(232) %0, ptr noundef %1, i1 noundef zeroext %2) #1 align 2 personality ptr @__gxx_personality_v0 {
  %4 = alloca ptr, align 8
  %5 = alloca ptr, align 8
  %6 = alloca i8, align 1
  %7 = alloca %"class.std::__cxx11::basic_string", align 8
  %8 = alloca i32, align 4
  %9 = alloca ptr, align 8
  %10 = alloca i32, align 4
  store ptr %0, ptr %4, align 8
  store ptr %1, ptr %5, align 8
  %11 = zext i1 %2 to i8
  store i8 %11, ptr %6, align 1
  %12 = load ptr, ptr %4, align 8
  br label %13

13:                                               ; preds = %3
  %14 = load ptr, ptr %5, align 8
  %15 = getelementptr inbounds %"struct.faiss::InvertedLists", ptr %14, i32 0, i32 1
  %16 = load i64, ptr %15, align 8
  %17 = getelementptr inbounds %"struct.faiss::IndexBinaryIVF", ptr %12, i32 0, i32 9
  %18 = load i64, ptr %17, align 8
  %19 = icmp eq i64 %16, %18
  br i1 %19, label %20, label %28

20:                                               ; preds = %13
  %21 = load ptr, ptr %5, align 8
  %22 = getelementptr inbounds %"struct.faiss::InvertedLists", ptr %21, i32 0, i32 2
  %23 = load i64, ptr %22, align 8
  %24 = getelementptr inbounds %"struct.faiss::IndexBinary", ptr %12, i32 0, i32 2
  %25 = load i32, ptr %24, align 4
  %26 = sext i32 %25 to i64
  %27 = icmp eq i64 %23, %26
  br i1 %27, label %51, label %28

28:                                               ; preds = %20, %13
  br label %29

29:                                               ; preds = %28
  call void @_ZNSt7__cxx1112basic_stringIcSt11char_traitsIcESaIcEEC1Ev(ptr noundef nonnull align 8 dereferenceable(32) %7) #14
  %30 = call i32 (ptr, i64, ptr, ...) @snprintf(ptr noundef null, i64 noundef 0, ptr noundef @.str, ptr noundef @.str.23) #14
  store i32 %30, ptr %8, align 4
  %31 = load i32, ptr %8, align 4
  %32 = add nsw i32 %31, 1
  %33 = sext i32 %32 to i64
  invoke void @_ZNSt7__cxx1112basic_stringIcSt11char_traitsIcESaIcEE6resizeEm(ptr noundef nonnull align 8 dereferenceable(32) %7, i64 noundef %33)
          to label %34 unwind label %41

34:                                               ; preds = %29
  %35 = invoke noundef nonnull align 1 dereferenceable(1) ptr @_ZNSt7__cxx1112basic_stringIcSt11char_traitsIcESaIcEEixEm(ptr noundef nonnull align 8 dereferenceable(32) %7, i64 noundef 0)
          to label %36 unwind label %41

36:                                               ; preds = %34
  %37 = call noundef i64 @_ZNKSt7__cxx1112basic_stringIcSt11char_traitsIcESaIcEE4sizeEv(ptr noundef nonnull align 8 dereferenceable(32) %7) #14
  %38 = call i32 (ptr, i64, ptr, ...) @snprintf(ptr noundef %35, i64 noundef %37, ptr noundef @.str, ptr noundef @.str.23) #14
  %39 = call ptr @__cxa_allocate_exception(i64 40) #14
  invoke void @_ZN5faiss14FaissExceptionC1ERKNSt7__cxx1112basic_stringIcSt11char_traitsIcESaIcEEEPKcSA_i(ptr noundef nonnull align 8 dereferenceable(40) %39, ptr noundef nonnull align 8 dereferenceable(32) %7, ptr noundef @__PRETTY_FUNCTION__._ZN5faiss14IndexBinaryIVF16replace_invlistsEPNS_13InvertedListsEb, ptr noundef @.str.2, i32 noundef 300)
          to label %40 unwind label %45

40:                                               ; preds = %36
  invoke void @__cxa_throw(ptr %39, ptr @_ZTIN5faiss14FaissExceptionE, ptr @_ZN5faiss14FaissExceptionD2Ev) #19
          to label %77 unwind label %41

41:                                               ; preds = %40, %34, %29
  %42 = landingpad { ptr, i32 }
          cleanup
  %43 = extractvalue { ptr, i32 } %42, 0
  store ptr %43, ptr %9, align 8
  %44 = extractvalue { ptr, i32 } %42, 1
  store i32 %44, ptr %10, align 4
  br label %49

45:                                               ; preds = %36
  %46 = landingpad { ptr, i32 }
          cleanup
  %47 = extractvalue { ptr, i32 } %46, 0
  store ptr %47, ptr %9, align 8
  %48 = extractvalue { ptr, i32 } %46, 1
  store i32 %48, ptr %10, align 4
  call void @__cxa_free_exception(ptr %39) #14
  br label %49

49:                                               ; preds = %45, %41
  call void @_ZNSt7__cxx1112basic_stringIcSt11char_traitsIcESaIcEED1Ev(ptr noundef nonnull align 8 dereferenceable(32) %7) #14
  br label %72

50:                                               ; No predecessors!
  br label %51

51:                                               ; preds = %50, %20
  br label %52

52:                                               ; preds = %51
  %53 = getelementptr inbounds %"struct.faiss::IndexBinaryIVF", ptr %12, i32 0, i32 2
  %54 = load i8, ptr %53, align 8
  %55 = trunc i8 %54 to i1
  br i1 %55, label %56, label %65

56:                                               ; preds = %52
  %57 = getelementptr inbounds %"struct.faiss::IndexBinaryIVF", ptr %12, i32 0, i32 1
  %58 = load ptr, ptr %57, align 8
  %59 = icmp eq ptr %58, null
  br i1 %59, label %64, label %60

60:                                               ; preds = %56
  %61 = load ptr, ptr %58, align 8
  %62 = getelementptr inbounds ptr, ptr %61, i64 1
  %63 = load ptr, ptr %62, align 8
  call void %63(ptr noundef nonnull align 8 dereferenceable(25) %58) #14
  br label %64

64:                                               ; preds = %60, %56
  br label %65

65:                                               ; preds = %64, %52
  %66 = load ptr, ptr %5, align 8
  %67 = getelementptr inbounds %"struct.faiss::IndexBinaryIVF", ptr %12, i32 0, i32 1
  store ptr %66, ptr %67, align 8
  %68 = load i8, ptr %6, align 1
  %69 = trunc i8 %68 to i1
  %70 = getelementptr inbounds %"struct.faiss::IndexBinaryIVF", ptr %12, i32 0, i32 2
  %71 = zext i1 %69 to i8
  store i8 %71, ptr %70, align 8
  ret void

72:                                               ; preds = %49
  %73 = load ptr, ptr %9, align 8
  %74 = load i32, ptr %10, align 4
  %75 = insertvalue { ptr, i32 } poison, ptr %73, 0
  %76 = insertvalue { ptr, i32 } %75, i32 %74, 1
  resume { ptr, i32 } %76

77:                                               ; preds = %40
  unreachable
}