; Function Attrs: mustprogress uwtable
define void @_ZN5faiss14IndexBinaryIVF16replace_invlistsEPNS_13InvertedListsEb(ptr nocapture noundef nonnull align 8 dereferenceable(232) %0, ptr noundef %1, i1 noundef zeroext %2) local_unnamed_addr #1 align 2 personality ptr @__gxx_personality_v0 {
  %4 = alloca %"class.std::__cxx11::basic_string", align 8
  %5 = getelementptr inbounds i8, ptr %1, i64 8
  %6 = load i64, ptr %5, align 8
  %7 = getelementptr inbounds i8, ptr %0, i64 168
  %8 = load i64, ptr %7, align 8
  %9 = icmp eq i64 %6, %8
  br i1 %9, label %10, label %17

10:                                               ; preds = %3
  %11 = getelementptr inbounds i8, ptr %1, i64 16
  %12 = load i64, ptr %11, align 8
  %13 = getelementptr inbounds i8, ptr %0, i64 12
  %14 = load i32, ptr %13, align 4
  %15 = sext i32 %14 to i64
  %16 = icmp eq i64 %12, %15
  br i1 %16, label %33, label %17

17:                                               ; preds = %3, %10
  call void @_ZNSt7__cxx1112basic_stringIcSt11char_traitsIcESaIcEEC1Ev(ptr noundef nonnull align 8 dereferenceable(32) %4) #20
  %18 = call i32 (ptr, i64, ptr, ...) @snprintf(ptr noundef null, i64 noundef 0, ptr noundef nonnull @.str, ptr noundef nonnull @.str.23) #20
  %19 = add nsw i32 %18, 1
  %20 = sext i32 %19 to i64
  invoke void @_ZNSt7__cxx1112basic_stringIcSt11char_traitsIcESaIcEE6resizeEm(ptr noundef nonnull align 8 dereferenceable(32) %4, i64 noundef %20)
          to label %21 unwind label %28

21:                                               ; preds = %17
  %22 = invoke noundef nonnull align 1 dereferenceable(1) ptr @_ZNSt7__cxx1112basic_stringIcSt11char_traitsIcESaIcEEixEm(ptr noundef nonnull align 8 dereferenceable(32) %4, i64 noundef 0)
          to label %23 unwind label %28

23:                                               ; preds = %21
  %24 = call noundef i64 @_ZNKSt7__cxx1112basic_stringIcSt11char_traitsIcESaIcEE4sizeEv(ptr noundef nonnull align 8 dereferenceable(32) %4) #20
  %25 = call i32 (ptr, i64, ptr, ...) @snprintf(ptr noundef nonnull %22, i64 noundef %24, ptr noundef nonnull @.str, ptr noundef nonnull @.str.23) #20
  %26 = call ptr @__cxa_allocate_exception(i64 40) #20
  invoke void @_ZN5faiss14FaissExceptionC1ERKNSt7__cxx1112basic_stringIcSt11char_traitsIcESaIcEEEPKcSA_i(ptr noundef nonnull align 8 dereferenceable(40) %26, ptr noundef nonnull align 8 dereferenceable(32) %4, ptr noundef nonnull @__PRETTY_FUNCTION__._ZN5faiss14IndexBinaryIVF16replace_invlistsEPNS_13InvertedListsEb, ptr noundef nonnull @.str.2, i32 noundef 300)
          to label %27 unwind label %30

27:                                               ; preds = %23
  invoke void @__cxa_throw(ptr nonnull %26, ptr nonnull @_ZTIN5faiss14FaissExceptionE, ptr nonnull @_ZN5faiss14FaissExceptionD2Ev) #29
          to label %48 unwind label %28

28:                                               ; preds = %27, %21, %17
  %29 = landingpad { ptr, i32 }
          cleanup
  br label %32

30:                                               ; preds = %23
  %31 = landingpad { ptr, i32 }
          cleanup
  call void @__cxa_free_exception(ptr %26) #20
  br label %32

32:                                               ; preds = %30, %28
  %.pn = phi { ptr, i32 } [ %29, %28 ], [ %31, %30 ]
  call void @_ZNSt7__cxx1112basic_stringIcSt11char_traitsIcESaIcEED1Ev(ptr noundef nonnull align 8 dereferenceable(32) %4) #20
  resume { ptr, i32 } %.pn

33:                                               ; preds = %10
  %34 = getelementptr inbounds i8, ptr %0, i64 40
  %35 = load i8, ptr %34, align 8
  %36 = and i8 %35, 1
  %.not = icmp eq i8 %36, 0
  br i1 %.not, label %45, label %37

37:                                               ; preds = %33
  %38 = getelementptr inbounds i8, ptr %0, i64 32
  %39 = load ptr, ptr %38, align 8
  %40 = icmp eq ptr %39, null
  br i1 %40, label %45, label %41

41:                                               ; preds = %37
  %42 = load ptr, ptr %39, align 8
  %43 = getelementptr inbounds i8, ptr %42, i64 8
  %44 = load ptr, ptr %43, align 8
  tail call void %44(ptr noundef nonnull align 8 dereferenceable(25) %39) #20
  br label %45

45:                                               ; preds = %37, %41, %33
  %46 = zext i1 %2 to i8
  %47 = getelementptr inbounds i8, ptr %0, i64 32
  store ptr %1, ptr %47, align 8
  store i8 %46, ptr %34, align 8
  ret void

48:                                               ; preds = %27
  unreachable
}